; Function Attrs: nounwind sspstrong uwtable
define internal i64 @call_cfunc_10(i64 noundef %0, i32 %1, ptr noundef readonly captures(none) %2, ptr noundef readonly captures(none) %3) #2 {
  %5 = load ptr, ptr @ruby_single_main_ractor, align 8, !tbaa !110
  %.not.i.i = icmp eq ptr %5, null
  br i1 %.not.i.i, label %rb_ractor_main_p.exit.i, label %ractor_unsafe_check.exit

rb_ractor_main_p.exit.i:                          ; preds = %4
  %6 = tail call zeroext i1 @rb_ractor_main_p_() #21
  br i1 %6, label %ractor_unsafe_check.exit, label %7

7:                                                ; preds = %rb_ractor_main_p.exit.i
  %8 = load i64, ptr @rb_eRactorUnsafeError, align 8, !tbaa !7
  tail call void (i64, ptr, ...) @rb_raise(i64 noundef %8, ptr noundef nonnull @.str.206) #37
  unreachable

ractor_unsafe_check.exit:                         ; preds = %4, %rb_ractor_main_p.exit.i
  %9 = load i64, ptr %2, align 8, !tbaa !7
  %10 = getelementptr i8, ptr %2, i64 8
  %11 = load i64, ptr %10, align 8, !tbaa !7
  %12 = getelementptr i8, ptr %2, i64 16
  %13 = load i64, ptr %12, align 8, !tbaa !7
  %14 = getelementptr i8, ptr %2, i64 24
  %15 = load i64, ptr %14, align 8, !tbaa !7
  %16 = getelementptr i8, ptr %2, i64 32
  %17 = load i64, ptr %16, align 8, !tbaa !7
  %18 = getelementptr i8, ptr %2, i64 40
  %19 = load i64, ptr %18, align 8, !tbaa !7
  %20 = getelementptr i8, ptr %2, i64 48
  %21 = load i64, ptr %20, align 8, !tbaa !7
  %22 = getelementptr i8, ptr %2, i64 56
  %23 = load i64, ptr %22, align 8, !tbaa !7
  %24 = getelementptr i8, ptr %2, i64 64
  %25 = load i64, ptr %24, align 8, !tbaa !7
  %26 = getelementptr i8, ptr %2, i64 72
  %27 = load i64, ptr %26, align 8, !tbaa !7
  %28 = tail call i64 %3(i64 noundef %0, i64 noundef %9, i64 noundef %11, i64 noundef %13, i64 noundef %15, i64 noundef %17, i64 noundef %19, i64 noundef %21, i64 noundef %23, i64 noundef %25, i64 noundef %27) #21
  ret i64 %28
}